Certificate:
    Data:
        Version: 1 (0x0)
        Serial Number: 2 (0x2)
        Signature Algorithm: sha256WithRSAEncryption
        Issuer: CN=SGXCACertificate
        Validity
            Not Before: Sep 24 14:43:23 2020 GMT
            Not After : Sep 22 14:43:23 2030 GMT
        Subject: CN=73e511841a4dbd4dd4370e0f65fac2054cf0755d5d63f1c8f2fe60b2db742d07
        Subject Public Key Info:
            Public Key Algorithm: rsaEncryption
                RSA Public-Key: (2048 bit)
                Modulus:
                    00:e5:af:7a:e5:24:25:90:2e:d1:5d:8a:ef:ca:4d:
                    e0:08:93:c9:ac:cc:bf:01:d4:a9:c0:a5:6e:2a:23:
                    0a:3c:e6:d3:0b:99:77:2f:26:0e:bd:5b:1d:3b:26:
                    88:20:e4:b6:f8:42:ea:9f:7b:87:07:7c:6c:10:ce:
                    df:b1:77:05:58:27:51:88:2c:ef:7b:c3:b5:39:ee:
                    34:c3:39:7b:f9:04:62:70:51:12:e1:2f:c6:39:30:
                    b8:f8:80:0d:06:2b:e4:e0:fb:66:58:87:2c:ac:6a:
                    52:99:a6:ef:c2:33:5d:67:8a:0b:50:b8:19:ad:74:
                    9c:21:c9:c0:b0:6e:3d:c3:a5:f3:35:5b:47:2c:84:
                    16:80:3d:53:65:2d:5f:26:9a:5c:fc:43:11:3f:78:
                    25:25:ee:c3:71:4c:08:94:b5:4c:47:e2:13:d1:6d:
                    f8:ca:26:e5:88:05:5b:61:8d:75:d2:9b:55:04:62:
                    ab:de:d9:d9:96:a9:6b:d2:c8:b5:8a:45:dc:04:3a:
                    13:ab:1c:a9:5f:a1:74:be:87:88:bd:79:f3:ac:c2:
                    17:c6:f2:c9:cc:47:ef:9e:63:70:73:0d:b2:17:27:
                    87:41:63:07:7e:f4:b5:4e:18:48:eb:24:9f:ec:55:
                    6d:1f:d0:4c:68:f1:40:05:6e:d0:65:09:74:ac:91:
                    42:6f
                Exponent: 65537 (0x10001)
    Signature Algorithm: sha256WithRSAEncryption
         7c:6d:8b:34:83:62:3d:66:5b:6f:9d:fd:86:ce:bc:f4:ec:af:
         65:67:97:45:7e:f3:7a:34:ba:76:55:19:c8:cb:77:15:e7:49:
         08:9d:b4:f0:f4:33:a9:b3:de:ac:34:98:96:ba:de:18:42:b4:
         a5:fe:1e:56:2e:fa:74:78:fc:51:d5:f5:37:05:bf:49:b4:d0:
         0a:aa:87:0b:3d:d0:a4:ed:00:dc:a8:f3:be:fe:f9:ef:8f:b2:
         84:6e:18:ae:e7:9c:55:db:98:54:66:55:63:00:34:bb:85:8e:
         e9:5e:61:00:dd:e2:77:04:45:7b:b5:0b:3b:46:df:9e:d1:1c:
         a2:f7:be:f3:5c:1b:21:94:ba:64:f7:26:77:ef:98:8e:38:75:
         61:0a:c7:e8:ba:9d:ab:2e:f6:92:76:e4:75:65:18:79:e1:ff:
         8d:d8:a5:79:38:04:a9:27:9f:e0:14:f9:0a:07:cb:05:f8:31:
         5e:34:ed:f2:7c:3c:b9:5f:c3:54:82:21:a0:8f:54:dc:d0:f3:
         34:36:58:5d:e5:a0:8b:3b:8c:5f:dd:3b:64:e8:ea:f3:8b:e7:
         b4:ee:ba:62:b8:33:ff:fc:3e:91:ed:99:5c:23:e4:97:35:17:
         46:7f:f0:58:f4:04:1e:ef:22:89:88:25:b1:53:6e:b0:63:db:
         db:57:0c:55
-----BEGIN CERTIFICATE-----
MIIC2jCCAcICAQIwDQYJKoZIhvcNAQELBQAwGzEZMBcGA1UEAwwQU0dYQ0FDZXJ0
aWZpY2F0ZTAeFw0yMDA5MjQxNDQzMjNaFw0zMDA5MjIxNDQzMjNaMEsxSTBHBgNV
BAMMQDczZTUxMTg0MWE0ZGJkNGRkNDM3MGUwZjY1ZmFjMjA1NGNmMDc1NWQ1ZDYz
ZjFjOGYyZmU2MGIyZGI3NDJkMDcwggEiMA0GCSqGSIb3DQEBAQUAA4IBDwAwggEK
AoIBAQDlr3rlJCWQLtFdiu/KTeAIk8mszL8B1KnApW4qIwo85tMLmXcvJg69Wx07
Jogg5Lb4Quqfe4cHfGwQzt+xdwVYJ1GILO97w7U57jTDOXv5BGJwURLhL8Y5MLj4
gA0GK+Tg+2ZYhyysalKZpu/CM11nigtQuBmtdJwhycCwbj3DpfM1W0cshBaAPVNl
LV8mmlz8QxE/eCUl7sNxTAiUtUxH4hPRbfjKJuWIBVthjXXSm1UEYqve2dmWqWvS
yLWKRdwEOhOrHKlfoXS+h4i9efOswhfG8snMR++eY3BzDbIXJ4dBYwd+9LVOGEjr
JJ/sVW0f0Exo8UAFbtBlCXSskUJvAgMBAAEwDQYJKoZIhvcNAQELBQADggEBAHxt
izSDYj1mW2+d/YbOvPTsr2Vnl0V+83o0unZVGcjLdxXnSQidtPD0M6mz3qw0mJa6
3hhCtKX+HlYu+nR4/FHV9TcFv0m00Aqqhws90KTtANyo877++e+PsoRuGK7nnFXb
mFRmVWMANLuFjuleYQDd4ncERXu1CztG357RHKL3vvNcGyGUumT3JnfvmI44dWEK
x+i6nasu9pJ25HVlGHnh/43YpXk4BKknn+AU+QoHywX4MV407fJ8PLlfw1SCIaCP
VNzQ8zQ2WF3loIs7jF/dO2To6vOL57TuumK4M//8PpHtmVwj5Jc1F0Z/8Fj0BB7v
IomIJbFTbrBj29tXDFU=
-----END CERTIFICATE-----
