Certificate:
    Data:
        Version: 1 (0x0)
        Serial Number: 2 (0x2)
        Signature Algorithm: sha256WithRSAEncryption
        Issuer: CN=SGXCACertificate
        Validity
            Not Before: Sep 19 12:56:04 2023 GMT
            Not After : Sep 16 12:56:04 2033 GMT
        Subject: CN=5dc29526100413e8a47a54c9245dda5faa5f3fb421c0ed932f2b7874a49448f4
        Subject Public Key Info:
            Public Key Algorithm: rsaEncryption
                RSA Public-Key: (2048 bit)
                Modulus:
                    00:9b:04:2f:4e:6d:bc:8a:65:17:cf:7f:8d:e0:24:
                    4a:13:a5:18:46:11:37:9b:52:d4:59:3b:09:cc:ea:
                    ba:5b:7f:ac:e6:3b:e1:1f:f7:9c:e8:9a:90:02:05:
                    e5:3f:96:6d:b0:2c:e9:6f:69:0f:7a:f0:9a:6b:f0:
                    97:24:76:7c:b1:61:c6:fc:a6:24:34:db:81:f8:76:
                    67:63:d6:a2:f2:54:75:8b:bb:d2:4a:90:e5:28:f2:
                    e4:c3:50:f2:b5:c1:e0:58:f5:a9:37:90:f0:87:78:
                    1e:48:d7:15:2a:62:2c:1c:27:cb:57:60:1f:42:10:
                    04:a4:c3:dd:b9:d0:f3:dc:ef:9c:fc:8b:74:30:65:
                    dc:ba:71:79:bd:ab:ec:2b:71:e6:e3:6d:90:07:3f:
                    55:72:da:68:f6:f8:5d:33:a5:19:12:89:8a:67:a0:
                    bd:bd:d4:a8:3f:fc:9a:84:6a:d0:ca:ba:9e:c2:29:
                    4f:61:59:2e:52:1f:77:c2:fa:38:0d:fc:b5:1e:7a:
                    cd:20:68:6e:c8:2d:f4:37:9e:c3:50:26:85:18:f3:
                    9b:dc:10:79:89:65:cf:bd:3e:77:d3:ac:11:6a:91:
                    cf:a4:b3:11:ed:06:dc:1d:b7:97:da:bf:b6:9f:e1:
                    aa:5e:5b:f1:5b:e1:d9:83:9a:fe:0a:3c:9c:ef:22:
                    1b:ef
                Exponent: 65537 (0x10001)
    Signature Algorithm: sha256WithRSAEncryption
         a0:cc:81:85:10:98:3b:57:e1:de:18:f1:fb:d2:c5:8c:e0:7e:
         ab:ac:9b:c2:67:f6:63:af:57:56:6e:df:66:31:1c:d0:4c:1a:
         f3:1f:05:67:db:33:f9:6d:af:10:08:21:c2:1a:01:41:af:d0:
         cd:83:9f:94:c4:97:73:43:2a:ea:b8:ca:65:90:c7:50:a3:26:
         5d:e0:9a:db:59:e2:88:c1:24:17:27:50:07:3b:1c:87:b0:a5:
         1b:b3:55:f1:76:e9:a2:5f:71:4d:93:fd:39:e7:cb:b0:a9:d1:
         5e:b9:18:9a:c7:6e:fb:ca:41:68:e7:3b:a9:15:73:ef:9d:5d:
         0f:b4:ed:e7:15:38:01:29:1e:b6:ca:00:9f:8e:71:49:df:30:
         e7:55:ce:47:1b:42:d9:01:87:47:4d:49:09:cc:00:a8:6e:b0:
         c3:de:34:55:d1:0e:ee:2a:86:b5:8b:de:0d:be:e7:d0:bc:23:
         04:22:46:2b:f7:86:d1:a1:5f:33:0d:32:e9:68:30:5d:e4:a2:
         2f:c2:b6:3c:43:13:03:00:21:3a:26:c4:a8:0b:fc:e3:fe:d5:
         59:7d:8d:85:4a:eb:22:cb:5f:dc:eb:2e:a7:0d:6f:cf:91:65:
         ed:1f:18:dd:e8:86:b2:8d:8a:f4:bc:55:ee:e0:ad:04:89:76:
         8d:d8:cf:bf
-----BEGIN CERTIFICATE-----
MIIC2jCCAcICAQIwDQYJKoZIhvcNAQELBQAwGzEZMBcGA1UEAwwQU0dYQ0FDZXJ0
aWZpY2F0ZTAeFw0yMzA5MTkxMjU2MDRaFw0zMzA5MTYxMjU2MDRaMEsxSTBHBgNV
BAMMQDVkYzI5NTI2MTAwNDEzZThhNDdhNTRjOTI0NWRkYTVmYWE1ZjNmYjQyMWMw
ZWQ5MzJmMmI3ODc0YTQ5NDQ4ZjQwggEiMA0GCSqGSIb3DQEBAQUAA4IBDwAwggEK
AoIBAQCbBC9ObbyKZRfPf43gJEoTpRhGETebUtRZOwnM6rpbf6zmO+Ef95zompAC
BeU/lm2wLOlvaQ968Jpr8JckdnyxYcb8piQ024H4dmdj1qLyVHWLu9JKkOUo8uTD
UPK1weBY9ak3kPCHeB5I1xUqYiwcJ8tXYB9CEASkw9250PPc75z8i3QwZdy6cXm9
q+wrcebjbZAHP1Vy2mj2+F0zpRkSiYpnoL291Kg//JqEatDKup7CKU9hWS5SH3fC
+jgN/LUees0gaG7ILfQ3nsNQJoUY85vcEHmJZc+9PnfTrBFqkc+ksxHtBtwdt5fa
v7af4apeW/Fb4dmDmv4KPJzvIhvvAgMBAAEwDQYJKoZIhvcNAQELBQADggEBAKDM
gYUQmDtX4d4Y8fvSxYzgfqusm8Jn9mOvV1Zu32YxHNBMGvMfBWfbM/ltrxAIIcIa
AUGv0M2Dn5TEl3NDKuq4ymWQx1CjJl3gmttZ4ojBJBcnUAc7HIewpRuzVfF26aJf
cU2T/Tnny7Cp0V65GJrHbvvKQWjnO6kVc++dXQ+07ecVOAEpHrbKAJ+OcUnfMOdV
zkcbQtkBh0dNSQnMAKhusMPeNFXRDu4qhrWL3g2+59C8IwQiRiv3htGhXzMNMulo
MF3koi/CtjxDEwMAITomxKgL/OP+1Vl9jYVK6yLLX9zrLqcNb8+RZe0fGN3ohrKN
ivS8Ve7grQSJdo3Yz78=
-----END CERTIFICATE-----
